target datalayout = "e-m:e-p270:32:32-p271:32:32-p272:64:64-i64:64-i128:128-f80:128-n8:16:32:64-S128"
target triple = "x86_64-pc-linux-gnu"

%struct.Abc_Ntk_t_ = type { i32, i32, ptr, ptr, ptr, ptr, ptr, ptr, ptr, ptr, ptr, ptr, ptr, [11 x i32], i32, i32, i32, i32, ptr, i32, ptr, ptr, i32, i32, i32, double, i32, %struct.Vec_Int_t_, ptr, ptr, ptr, ptr, ptr, float, i32, ptr, ptr, ptr, ptr, ptr, ptr, ptr, ptr, ptr, ptr, ptr, ptr, ptr, ptr, ptr, ptr, ptr, ptr, ptr, ptr, ptr }
%struct.Vec_Int_t_ = type { i32, i32, ptr }
%struct.Abc_ManTime_t_ = type { %struct.Abc_Time_t_, %struct.Abc_Time_t_, ptr, ptr, %struct.Abc_Time_t_, %struct.Abc_Time_t_, ptr, ptr }
%struct.Abc_Time_t_ = type { float, float }
%struct.Abc_Obj_t_ = type { ptr, ptr, i32, i32, %struct.Vec_Int_t_, %struct.Vec_Int_t_, %union.anon, %union.anon.0 }
%union.anon = type { ptr }
%union.anon.0 = type { ptr }
%struct.Vec_Ptr_t_ = type { i32, i32, ptr }

@.str = private unnamed_addr constant [28 x i8] c"There is no timing manager\0A\00", align 1
@.str.1 = private unnamed_addr constant [23 x i8] c"Default arrival = %8f\0A\00", align 1
@.str.2 = private unnamed_addr constant [24 x i8] c"Default required = %8f\0A\00", align 1
@.str.3 = private unnamed_addr constant [14 x i8] c"Inputs (%d):\0A\00", align 1
@.str.4 = private unnamed_addr constant [39 x i8] c"%20s   arrival = %8f   required = %8f\0A\00", align 1
@.str.5 = private unnamed_addr constant [15 x i8] c"Outputs (%d):\0A\00", align 1

; Function Attrs: nounwind uwtable
define internal ptr @Abc_NodeRequired(ptr noundef %0) #0 {
  %2 = alloca ptr, align 8
  store ptr %0, ptr %2, align 8
  %3 = load ptr, ptr %2, align 8
  %4 = getelementptr inbounds %struct.Abc_Obj_t_, ptr %3, i32 0, i32 0
  %5 = load ptr, ptr %4, align 8
  %6 = getelementptr inbounds %struct.Abc_Ntk_t_, ptr %5, i32 0, i32 31
  %7 = load ptr, ptr %6, align 8
  %8 = getelementptr inbounds %struct.Abc_ManTime_t_, ptr %7, i32 0, i32 3
  %9 = load ptr, ptr %8, align 8
  %10 = getelementptr inbounds %struct.Vec_Ptr_t_, ptr %9, i32 0, i32 2
  %11 = load ptr, ptr %10, align 8
  %12 = load ptr, ptr %2, align 8
  %13 = getelementptr inbounds %struct.Abc_Obj_t_, ptr %12, i32 0, i32 2
  %14 = load i32, ptr %13, align 8
  %15 = sext i32 %14 to i64
  %16 = getelementptr inbounds ptr, ptr %11, i64 %15
  %17 = load ptr, ptr %16, align 8
  ret ptr %17
}

; Function Attrs: nounwind uwtable
define internal float @Abc_MinFloat(float noundef %0, float noundef %1) #0 {
  %3 = alloca float, align 4
  %4 = alloca float, align 4
  store float %0, ptr %3, align 4
  store float %1, ptr %4, align 4
  %5 = load float, ptr %3, align 4
  %6 = load float, ptr %4, align 4
  %7 = fcmp olt float %5, %6
  br i1 %7, label %8, label %10

8:                                                ; preds = %2
  %9 = load float, ptr %3, align 4
  br label %12

10:                                               ; preds = %2
  %11 = load float, ptr %4, align 4
  br label %12

12:                                               ; preds = %10, %8
  %13 = phi float [ %9, %8 ], [ %11, %10 ]
  ret float %13
}

; Function Attrs: nounwind uwtable
define ptr @Abc_NodeReadRequired(ptr noundef %0) #0 {
  %2 = alloca ptr, align 8
  store ptr %0, ptr %2, align 8
  %3 = load ptr, ptr %2, align 8
  %4 = call ptr @Abc_NodeRequired(ptr noundef %3)
  ret ptr %4
}

; Function Attrs: nounwind uwtable
define internal float @Abc_MaxFloat(float noundef %0, float noundef %1) #0 {
  %3 = alloca float, align 4
  %4 = alloca float, align 4
  store float %0, ptr %3, align 4
  store float %1, ptr %4, align 4
  %5 = load float, ptr %3, align 4
  %6 = load float, ptr %4, align 4
  %7 = fcmp ogt float %5, %6
  br i1 %7, label %8, label %10

8:                                                ; preds = %2
  %9 = load float, ptr %3, align 4
  br label %12

10:                                               ; preds = %2
  %11 = load float, ptr %4, align 4
  br label %12

12:                                               ; preds = %10, %8
  %13 = phi float [ %9, %8 ], [ %11, %10 ]
  ret float %13
}

; Function Attrs: nounwind uwtable
define internal ptr @Abc_NodeArrival(ptr noundef %0) #0 {
  %2 = alloca ptr, align 8
  store ptr %0, ptr %2, align 8
  %3 = load ptr, ptr %2, align 8
  %4 = getelementptr inbounds %struct.Abc_Obj_t_, ptr %3, i32 0, i32 0
  %5 = load ptr, ptr %4, align 8
  %6 = getelementptr inbounds %struct.Abc_Ntk_t_, ptr %5, i32 0, i32 31
  %7 = load ptr, ptr %6, align 8
  %8 = getelementptr inbounds %struct.Abc_ManTime_t_, ptr %7, i32 0, i32 2
  %9 = load ptr, ptr %8, align 8
  %10 = getelementptr inbounds %struct.Vec_Ptr_t_, ptr %9, i32 0, i32 2
  %11 = load ptr, ptr %10, align 8
  %12 = load ptr, ptr %2, align 8
  %13 = getelementptr inbounds %struct.Abc_Obj_t_, ptr %12, i32 0, i32 2
  %14 = load i32, ptr %13, align 8
  %15 = sext i32 %14 to i64
  %16 = getelementptr inbounds ptr, ptr %11, i64 %15
  %17 = load ptr, ptr %16, align 8
  ret ptr %17
}

; Function Attrs: nounwind uwtable
define internal ptr @Vec_PtrEntry(ptr noundef %0, i32 noundef %1) #0 {
  %3 = alloca ptr, align 8
  %4 = alloca i32, align 4
  store ptr %0, ptr %3, align 8
  store i32 %1, ptr %4, align 4
  %5 = load ptr, ptr %3, align 8
  %6 = getelementptr inbounds %struct.Vec_Ptr_t_, ptr %5, i32 0, i32 2
  %7 = load ptr, ptr %6, align 8
  %8 = load i32, ptr %4, align 4
  %9 = sext i32 %8 to i64
  %10 = getelementptr inbounds ptr, ptr %7, i64 %9
  %11 = load ptr, ptr %10, align 8
  ret ptr %11
}

; Function Attrs: nounwind uwtable
define internal i32 @Vec_PtrSize(ptr noundef %0) #0 {
  %2 = alloca ptr, align 8
  store ptr %0, ptr %2, align 8
  %3 = load ptr, ptr %2, align 8
  %4 = getelementptr inbounds %struct.Vec_Ptr_t_, ptr %3, i32 0, i32 1
  %5 = load i32, ptr %4, align 4
  ret i32 %5
}

; Function Attrs: nounwind uwtable
define internal ptr @Abc_NtkCo(ptr noundef %0, i32 noundef %1) #0 {
  %3 = alloca ptr, align 8
  %4 = alloca i32, align 4
  store ptr %0, ptr %3, align 8
  store i32 %1, ptr %4, align 4
  %5 = load ptr, ptr %3, align 8
  %6 = getelementptr inbounds %struct.Abc_Ntk_t_, ptr %5, i32 0, i32 9
  %7 = load ptr, ptr %6, align 8
  %8 = load i32, ptr %4, align 4
  %9 = call ptr @Vec_PtrEntry(ptr noundef %7, i32 noundef %8)
  ret ptr %9
}

; Function Attrs: nounwind uwtable
define internal i32 @Abc_NtkCoNum(ptr noundef %0) #0 {
  %2 = alloca ptr, align 8
  store ptr %0, ptr %2, align 8
  %3 = load ptr, ptr %2, align 8
  %4 = getelementptr inbounds %struct.Abc_Ntk_t_, ptr %3, i32 0, i32 9
  %5 = load ptr, ptr %4, align 8
  %6 = call i32 @Vec_PtrSize(ptr noundef %5)
  ret i32 %6
}

; Function Attrs: nounwind uwtable
define float @Abc_NodeReadRequiredWorst(ptr noundef %0) #0 {
  %2 = alloca ptr, align 8
  store ptr %0, ptr %2, align 8
  %3 = load ptr, ptr %2, align 8
  %4 = call ptr @Abc_NodeReadRequired(ptr noundef %3)
  %5 = getelementptr inbounds %struct.Abc_Time_t_, ptr %4, i32 0, i32 0
  %6 = load float, ptr %5, align 4
  %7 = load ptr, ptr %2, align 8
  %8 = call ptr @Abc_NodeReadRequired(ptr noundef %7)
  %9 = getelementptr inbounds %struct.Abc_Time_t_, ptr %8, i32 0, i32 1
  %10 = load float, ptr %9, align 4
  %11 = call float @Abc_MinFloat(float noundef %6, float noundef %10)
  ret float %11
}

; Function Attrs: nounwind uwtable
define float @Abc_NodeReadArrivalWorst(ptr noundef %0) #0 {
  %2 = alloca ptr, align 8
  store ptr %0, ptr %2, align 8
  %3 = load ptr, ptr %2, align 8
  %4 = call ptr @Abc_NodeArrival(ptr noundef %3)
  %5 = getelementptr inbounds %struct.Abc_Time_t_, ptr %4, i32 0, i32 0
  %6 = load float, ptr %5, align 4
  %7 = load ptr, ptr %2, align 8
  %8 = call ptr @Abc_NodeArrival(ptr noundef %7)
  %9 = getelementptr inbounds %struct.Abc_Time_t_, ptr %8, i32 0, i32 1
  %10 = load float, ptr %9, align 4
  %11 = call float @Abc_MaxFloat(float noundef %6, float noundef %10)
  ret float %11
}

; Function Attrs: nounwind uwtable
define internal ptr @Abc_NtkCi(ptr noundef %0, i32 noundef %1) #0 {
  %3 = alloca ptr, align 8
  %4 = alloca i32, align 4
  store ptr %0, ptr %3, align 8
  store i32 %1, ptr %4, align 4
  %5 = load ptr, ptr %3, align 8
  %6 = getelementptr inbounds %struct.Abc_Ntk_t_, ptr %5, i32 0, i32 8
  %7 = load ptr, ptr %6, align 8
  %8 = load i32, ptr %4, align 4
  %9 = call ptr @Vec_PtrEntry(ptr noundef %7, i32 noundef %8)
  ret ptr %9
}

; Function Attrs: nounwind uwtable
define internal i32 @Abc_NtkCiNum(ptr noundef %0) #0 {
  %2 = alloca ptr, align 8
  store ptr %0, ptr %2, align 8
  %3 = load ptr, ptr %2, align 8
  %4 = getelementptr inbounds %struct.Abc_Ntk_t_, ptr %3, i32 0, i32 8
  %5 = load ptr, ptr %4, align 8
  %6 = call i32 @Vec_PtrSize(ptr noundef %5)
  ret i32 %6
}

; Function Attrs: nounwind uwtable
define void @Abc_NtkTimePrint(ptr noundef %0) #0 {
  %2 = alloca ptr, align 8
  %3 = alloca ptr, align 8
  %4 = alloca i32, align 4
  store ptr %0, ptr %2, align 8
  %5 = load ptr, ptr %2, align 8
  %6 = getelementptr inbounds %struct.Abc_Ntk_t_, ptr %5, i32 0, i32 31
  %7 = load ptr, ptr %6, align 8
  %8 = icmp eq ptr %7, null
  br i1 %8, label %9, label %11

9:                                                ; preds = %1
  %10 = call i32 (ptr, ...) @printf(ptr noundef @.str)
  br label %84

11:                                               ; preds = %1
  %12 = load ptr, ptr %2, align 8
  %13 = getelementptr inbounds %struct.Abc_Ntk_t_, ptr %12, i32 0, i32 31
  %14 = load ptr, ptr %13, align 8
  %15 = getelementptr inbounds %struct.Abc_ManTime_t_, ptr %14, i32 0, i32 0
  %16 = getelementptr inbounds %struct.Abc_Time_t_, ptr %15, i32 0, i32 1
  %17 = load float, ptr %16, align 4
  %18 = fpext float %17 to double
  %19 = call i32 (ptr, ...) @printf(ptr noundef @.str.1, double noundef %18)
  %20 = load ptr, ptr %2, align 8
  %21 = getelementptr inbounds %struct.Abc_Ntk_t_, ptr %20, i32 0, i32 31
  %22 = load ptr, ptr %21, align 8
  %23 = getelementptr inbounds %struct.Abc_ManTime_t_, ptr %22, i32 0, i32 1
  %24 = getelementptr inbounds %struct.Abc_Time_t_, ptr %23, i32 0, i32 1
  %25 = load float, ptr %24, align 4
  %26 = fpext float %25 to double
  %27 = call i32 (ptr, ...) @printf(ptr noundef @.str.2, double noundef %26)
  %28 = load ptr, ptr %2, align 8
  %29 = call i32 @Abc_NtkCiNum(ptr noundef %28)
  %30 = call i32 (ptr, ...) @printf(ptr noundef @.str.3, i32 noundef %29)
  store i32 0, ptr %4, align 4
  br label %31

31:                                               ; preds = %52, %11
  %32 = load i32, ptr %4, align 4
  %33 = load ptr, ptr %2, align 8
  %34 = call i32 @Abc_NtkCiNum(ptr noundef %33)
  %35 = icmp slt i32 %32, %34
  br i1 %35, label %36, label %40

36:                                               ; preds = %31
  %37 = load ptr, ptr %2, align 8
  %38 = load i32, ptr %4, align 4
  %39 = call ptr @Abc_NtkCi(ptr noundef %37, i32 noundef %38)
  store ptr %39, ptr %3, align 8
  br label %40

40:                                               ; preds = %36, %31
  %41 = phi i1 [ false, %31 ], [ true, %36 ]
  br i1 %41, label %42, label %55

42:                                               ; preds = %40
  %43 = load ptr, ptr %3, align 8
  %44 = call ptr @Abc_ObjName(ptr noundef %43)
  %45 = load ptr, ptr %3, align 8
  %46 = call float @Abc_NodeReadArrivalWorst(ptr noundef %45)
  %47 = fpext float %46 to double
  %48 = load ptr, ptr %3, align 8
  %49 = call float @Abc_NodeReadRequiredWorst(ptr noundef %48)
  %50 = fpext float %49 to double
  %51 = call i32 (ptr, ...) @printf(ptr noundef @.str.4, ptr noundef %44, double noundef %47, double noundef %50)
  br label %52

52:                                               ; preds = %42
  %53 = load i32, ptr %4, align 4
  %54 = add nsw i32 %53, 1
  store i32 %54, ptr %4, align 4
  br label %31, !llvm.loop !27

55:                                               ; preds = %40
  %56 = load ptr, ptr %2, align 8
  %57 = call i32 @Abc_NtkCoNum(ptr noundef %56)
  %58 = call i32 (ptr, ...) @printf(ptr noundef @.str.5, i32 noundef %57)
  store i32 0, ptr %4, align 4
  br label %59

59:                                               ; preds = %80, %55
  %60 = load i32, ptr %4, align 4
  %61 = load ptr, ptr %2, align 8
  %62 = call i32 @Abc_NtkCoNum(ptr noundef %61)
  %63 = icmp slt i32 %60, %62
  br i1 %63, label %64, label %68

64:                                               ; preds = %59
  %65 = load ptr, ptr %2, align 8
  %66 = load i32, ptr %4, align 4
  %67 = call ptr @Abc_NtkCo(ptr noundef %65, i32 noundef %66)
  store ptr %67, ptr %3, align 8
  br label %68

68:                                               ; preds = %64, %59
  %69 = phi i1 [ false, %59 ], [ true, %64 ]
  br i1 %69, label %70, label %83

70:                                               ; preds = %68
  %71 = load ptr, ptr %3, align 8
  %72 = call ptr @Abc_ObjName(ptr noundef %71)
  %73 = load ptr, ptr %3, align 8
  %74 = call float @Abc_NodeReadArrivalWorst(ptr noundef %73)
  %75 = fpext float %74 to double
  %76 = load ptr, ptr %3, align 8
  %77 = call float @Abc_NodeReadRequiredWorst(ptr noundef %76)
  %78 = fpext float %77 to double
  %79 = call i32 (ptr, ...) @printf(ptr noundef @.str.4, ptr noundef %72, double noundef %75, double noundef %78)
  br label %80

80:                                               ; preds = %70
  %81 = load i32, ptr %4, align 4
  %82 = add nsw i32 %81, 1
  store i32 %82, ptr %4, align 4
  br label %59, !llvm.loop !28

83:                                               ; preds = %68
  br label %84

84:                                               ; preds = %83, %9
  ret void
}