; Function Attrs: nounwind uwtable
define void @Abc_NtkTimePrint(ptr noundef readonly captures(none) %0) local_unnamed_addr #3 {
  %2 = getelementptr inbounds nuw i8, ptr %0, i64 264
  %3 = load ptr, ptr %2, align 8
  %4 = icmp eq ptr %3, null
  br i1 %4, label %5, label %6

5:                                                ; preds = %1
  %puts = tail call i32 @puts(ptr nonnull dereferenceable(1) @str)
  br label %.critedge2

6:                                                ; preds = %1
  %7 = getelementptr inbounds nuw i8, ptr %3, i64 4
  %8 = load float, ptr %7, align 4
  %9 = fpext float %8 to double
  %10 = tail call i32 (ptr, ...) @printf(ptr noundef nonnull dereferenceable(1) @.str.1, double noundef %9)
  %11 = load ptr, ptr %2, align 8
  %12 = getelementptr inbounds nuw i8, ptr %11, i64 12
  %13 = load float, ptr %12, align 4
  %14 = fpext float %13 to double
  %15 = tail call i32 (ptr, ...) @printf(ptr noundef nonnull dereferenceable(1) @.str.2, double noundef %14)
  %16 = getelementptr i8, ptr %0, i64 56
  %.val23 = load ptr, ptr %16, align 8
  %17 = getelementptr i8, ptr %.val23, i64 4
  %.val23.val = load i32, ptr %17, align 4
  %18 = tail call i32 (ptr, ...) @printf(ptr noundef nonnull dereferenceable(1) @.str.3, i32 noundef %.val23.val)
  %.val38 = load ptr, ptr %16, align 8
  %19 = getelementptr i8, ptr %.val38, i64 4
  %.val.val39 = load i32, ptr %19, align 4
  %20 = icmp sgt i32 %.val.val39, 0
  br i1 %20, label %.lr.ph, label %.critedge

.lr.ph:                                           ; preds = %6, %.lr.ph
  %indvars.iv = phi i64 [ %indvars.iv.next, %.lr.ph ], [ 0, %6 ]
  %.val41 = phi ptr [ %.val, %.lr.ph ], [ %.val38, %6 ]
  %21 = getelementptr i8, ptr %.val41, i64 8
  %.val24.val = load ptr, ptr %21, align 8
  %22 = getelementptr inbounds nuw ptr, ptr %.val24.val, i64 %indvars.iv
  %23 = load ptr, ptr %22, align 8
  %24 = tail call ptr @Abc_ObjName(ptr noundef %23) #22
  %.val3.i = load ptr, ptr %23, align 8
  %25 = getelementptr i8, ptr %23, i64 16
  %.val4.i = load i32, ptr %25, align 8
  %26 = getelementptr i8, ptr %.val3.i, i64 264
  %.val3.val.i = load ptr, ptr %26, align 8
  %27 = getelementptr i8, ptr %.val3.val.i, i64 16
  %.val3.val.val.i = load ptr, ptr %27, align 8
  %28 = getelementptr i8, ptr %.val3.val.val.i, i64 8
  %.val3.val.val.val.i = load ptr, ptr %28, align 8
  %29 = sext i32 %.val4.i to i64
  %30 = getelementptr inbounds ptr, ptr %.val3.val.val.val.i, i64 %29
  %31 = load ptr, ptr %30, align 8
  %32 = load float, ptr %31, align 4
  %33 = getelementptr inbounds nuw i8, ptr %31, i64 4
  %34 = load float, ptr %33, align 4
  %35 = fcmp ogt float %32, %34
  %36 = select i1 %35, float %32, float %34
  %37 = fpext float %36 to double
  %38 = getelementptr i8, ptr %.val3.val.i, i64 24
  %.val.val.val.i.i = load ptr, ptr %38, align 8
  %39 = getelementptr i8, ptr %.val.val.val.i.i, i64 8
  %.val.val.val.val.i.i = load ptr, ptr %39, align 8
  %40 = getelementptr inbounds ptr, ptr %.val.val.val.val.i.i, i64 %29
  %41 = load ptr, ptr %40, align 8
  %42 = load float, ptr %41, align 4
  %43 = getelementptr inbounds nuw i8, ptr %41, i64 4
  %44 = load float, ptr %43, align 4
  %45 = fcmp olt float %42, %44
  %46 = select i1 %45, float %42, float %44
  %47 = fpext float %46 to double
  %48 = tail call i32 (ptr, ...) @printf(ptr noundef nonnull dereferenceable(1) @.str.4, ptr noundef %24, double noundef %37, double noundef %47)
  %indvars.iv.next = add nuw nsw i64 %indvars.iv, 1
  %.val = load ptr, ptr %16, align 8
  %49 = getelementptr i8, ptr %.val, i64 4
  %.val.val = load i32, ptr %49, align 4
  %50 = sext i32 %.val.val to i64
  %51 = icmp slt i64 %indvars.iv.next, %50
  br i1 %51, label %.lr.ph, label %.critedge, !llvm.loop !27

.critedge:                                        ; preds = %.lr.ph, %6
  %52 = getelementptr i8, ptr %0, i64 64
  %.val26 = load ptr, ptr %52, align 8
  %53 = getelementptr i8, ptr %.val26, i64 4
  %.val26.val = load i32, ptr %53, align 4
  %54 = tail call i32 (ptr, ...) @printf(ptr noundef nonnull dereferenceable(1) @.str.5, i32 noundef %.val26.val)
  %.val2542 = load ptr, ptr %52, align 8
  %55 = getelementptr i8, ptr %.val2542, i64 4
  %.val25.val43 = load i32, ptr %55, align 4
  %56 = icmp sgt i32 %.val25.val43, 0
  br i1 %56, label %.lr.ph46, label %.critedge2

.lr.ph46:                                         ; preds = %.critedge, %.lr.ph46
  %indvars.iv48 = phi i64 [ %indvars.iv.next49, %.lr.ph46 ], [ 0, %.critedge ]
  %.val2545 = phi ptr [ %.val25, %.lr.ph46 ], [ %.val2542, %.critedge ]
  %57 = getelementptr i8, ptr %.val2545, i64 8
  %.val27.val = load ptr, ptr %57, align 8
  %58 = getelementptr inbounds nuw ptr, ptr %.val27.val, i64 %indvars.iv48
  %59 = load ptr, ptr %58, align 8
  %60 = tail call ptr @Abc_ObjName(ptr noundef %59) #22
  %.val3.i28 = load ptr, ptr %59, align 8
  %61 = getelementptr i8, ptr %59, i64 16
  %.val4.i29 = load i32, ptr %61, align 8
  %62 = getelementptr i8, ptr %.val3.i28, i64 264
  %.val3.val.i30 = load ptr, ptr %62, align 8
  %63 = getelementptr i8, ptr %.val3.val.i30, i64 16
  %.val3.val.val.i31 = load ptr, ptr %63, align 8
  %64 = getelementptr i8, ptr %.val3.val.val.i31, i64 8
  %.val3.val.val.val.i32 = load ptr, ptr %64, align 8
  %65 = sext i32 %.val4.i29 to i64
  %66 = getelementptr inbounds ptr, ptr %.val3.val.val.val.i32, i64 %65
  %67 = load ptr, ptr %66, align 8
  %68 = load float, ptr %67, align 4
  %69 = getelementptr inbounds nuw i8, ptr %67, i64 4
  %70 = load float, ptr %69, align 4
  %71 = fcmp ogt float %68, %70
  %72 = select i1 %71, float %68, float %70
  %73 = fpext float %72 to double
  %74 = getelementptr i8, ptr %.val3.val.i30, i64 24
  %.val.val.val.i.i36 = load ptr, ptr %74, align 8
  %75 = getelementptr i8, ptr %.val.val.val.i.i36, i64 8
  %.val.val.val.val.i.i37 = load ptr, ptr %75, align 8
  %76 = getelementptr inbounds ptr, ptr %.val.val.val.val.i.i37, i64 %65
  %77 = load ptr, ptr %76, align 8
  %78 = load float, ptr %77, align 4
  %79 = getelementptr inbounds nuw i8, ptr %77, i64 4
  %80 = load float, ptr %79, align 4
  %81 = fcmp olt float %78, %80
  %82 = select i1 %81, float %78, float %80
  %83 = fpext float %82 to double
  %84 = tail call i32 (ptr, ...) @printf(ptr noundef nonnull dereferenceable(1) @.str.4, ptr noundef %60, double noundef %73, double noundef %83)
  %indvars.iv.next49 = add nuw nsw i64 %indvars.iv48, 1
  %.val25 = load ptr, ptr %52, align 8
  %85 = getelementptr i8, ptr %.val25, i64 4
  %.val25.val = load i32, ptr %85, align 4
  %86 = sext i32 %.val25.val to i64
  %87 = icmp slt i64 %indvars.iv.next49, %86
  br i1 %87, label %.lr.ph46, label %.critedge2, !llvm.loop !28

.critedge2:                                       ; preds = %.lr.ph46, %.critedge, %5
  ret void
}